target datalayout = "e-m:e-p270:32:32-p271:32:32-p272:64:64-i64:64-i128:128-f80:128-n8:16:32:64-S128"
target triple = "x86_64-pc-linux-gnu"

%struct._priv_exr_context_t = type { i8, i8, i8, i8, i8, i8, i8, i8, %struct.exr_attr_string_t, %struct.exr_attr_string_t, ptr, ptr, ptr, ptr, ptr, ptr, ptr, ptr, i32, i32, i32, i32, i32, float, ptr, ptr, ptr, i64, ptr, ptr, i64, i32, i32, i32, i32, %struct._priv_exr_part_t, ptr, ptr, %struct.exr_attribute_list, %union.pthread_mutex_t, i8, i8, [2 x i8], i32 }
%struct.exr_attr_string_t = type { i32, i32, ptr }
%struct._priv_exr_part_t = type { i32, i32, %struct.exr_attribute_list, ptr, ptr, ptr, ptr, ptr, ptr, ptr, ptr, ptr, ptr, ptr, ptr, ptr, ptr, %struct.exr_attr_box2i_t, %struct.exr_attr_box2i_t, i32, i32, i32, float, i32, i32, ptr, ptr, ptr, ptr, i64, i16, i16, i32, i64, i64 }
%struct.exr_attr_box2i_t = type { %struct.exr_attr_v2i_t, %struct.exr_attr_v2i_t }
%struct.exr_attr_v2i_t = type { i32, i32 }
%struct.exr_attribute_list = type { i32, i32, ptr, ptr }
%union.pthread_mutex_t = type { %struct.__pthread_mutex_s }
%struct.__pthread_mutex_s = type { i32, i32, i32, i32, i32, i16, i16, %struct.__pthread_internal_list }
%struct.__pthread_internal_list = type { ptr, ptr }

@.str = private unnamed_addr constant [29 x i8] c"Part index (%d) out of range\00", align 1

; Function Attrs: inlinehint nounwind uwtable
define internal void @internal_exr_unlock(ptr noundef %0) #2 {
  %2 = alloca ptr, align 8
  %3 = alloca ptr, align 8
  store ptr %0, ptr %2, align 8, !tbaa !3
  call void @llvm.lifetime.start.p0(i64 8, ptr %3) #7
  %4 = load ptr, ptr %2, align 8, !tbaa !3
  %5 = ptrtoint ptr %4 to i64
  %6 = inttoptr i64 %5 to ptr
  store ptr %6, ptr %3, align 8, !tbaa !3
  %7 = load ptr, ptr %3, align 8, !tbaa !3
  %8 = getelementptr inbounds nuw %struct._priv_exr_context_t, ptr %7, i32 0, i32 39
  %9 = call i32 @pthread_mutex_unlock(ptr noundef %8) #7
  call void @llvm.lifetime.end.p0(i64 8, ptr %3) #7
  ret void
}

; Function Attrs: inlinehint nounwind uwtable
define internal void @internal_exr_lock(ptr noundef %0) #2 {
  %2 = alloca ptr, align 8
  %3 = alloca ptr, align 8
  store ptr %0, ptr %2, align 8, !tbaa !3
  call void @llvm.lifetime.start.p0(i64 8, ptr %3) #7
  %4 = load ptr, ptr %2, align 8, !tbaa !3
  %5 = ptrtoint ptr %4 to i64
  %6 = inttoptr i64 %5 to ptr
  store ptr %6, ptr %3, align 8, !tbaa !3
  %7 = load ptr, ptr %3, align 8, !tbaa !3
  %8 = getelementptr inbounds nuw %struct._priv_exr_context_t, ptr %7, i32 0, i32 39
  %9 = call i32 @pthread_mutex_lock(ptr noundef %8) #7
  call void @llvm.lifetime.end.p0(i64 8, ptr %3) #7
  ret void
}

; Function Attrs: nounwind uwtable
define i32 @exr_write_deep_scanline_chunk(ptr noundef %0, i32 noundef %1, i32 noundef %2, ptr noundef %3, i64 noundef %4, i64 noundef %5, ptr noundef %6, i64 noundef %7) #0 {
  %9 = alloca i32, align 4
  %10 = alloca ptr, align 8
  %11 = alloca i32, align 4
  %12 = alloca i32, align 4
  %13 = alloca ptr, align 8
  %14 = alloca i64, align 8
  %15 = alloca i64, align 8
  %16 = alloca ptr, align 8
  %17 = alloca i64, align 8
  %18 = alloca i32, align 4
  %19 = alloca ptr, align 8
  %20 = alloca i32, align 4
  store ptr %0, ptr %10, align 8, !tbaa !3
  store i32 %1, ptr %11, align 4, !tbaa !8
  store i32 %2, ptr %12, align 4, !tbaa !8
  store ptr %3, ptr %13, align 8, !tbaa !54
  store i64 %4, ptr %14, align 8, !tbaa !33
  store i64 %5, ptr %15, align 8, !tbaa !33
  store ptr %6, ptr %16, align 8, !tbaa !54
  store i64 %7, ptr %17, align 8, !tbaa !33
  call void @llvm.lifetime.start.p0(i64 4, ptr %18) #7
  call void @llvm.lifetime.start.p0(i64 8, ptr %19) #7
  %21 = load ptr, ptr %10, align 8, !tbaa !3
  %22 = icmp ne ptr %21, null
  br i1 %22, label %24, label %23

23:                                               ; preds = %8
  store i32 2, ptr %9, align 4
  store i32 1, ptr %20, align 4
  br label %74

24:                                               ; preds = %8
  %25 = load ptr, ptr %10, align 8, !tbaa !3
  call void @internal_exr_lock(ptr noundef %25)
  %26 = load i32, ptr %11, align 4, !tbaa !8
  %27 = icmp slt i32 %26, 0
  br i1 %27, label %34, label %28

28:                                               ; preds = %24
  %29 = load i32, ptr %11, align 4, !tbaa !8
  %30 = load ptr, ptr %10, align 8, !tbaa !3
  %31 = getelementptr inbounds nuw %struct._priv_exr_context_t, ptr %30, i32 0, i32 34
  %32 = load i32, ptr %31, align 4, !tbaa !27
  %33 = icmp sge i32 %29, %32
  br i1 %33, label %34, label %42

34:                                               ; preds = %28, %24
  %35 = load ptr, ptr %10, align 8, !tbaa !3
  call void @internal_exr_unlock(ptr noundef %35)
  %36 = load ptr, ptr %10, align 8, !tbaa !3
  %37 = getelementptr inbounds nuw %struct._priv_exr_context_t, ptr %36, i32 0, i32 14
  %38 = load ptr, ptr %37, align 8, !tbaa !28
  %39 = load ptr, ptr %10, align 8, !tbaa !3
  %40 = load i32, ptr %11, align 4, !tbaa !8
  %41 = call i32 (ptr, i32, ptr, ...) %38(ptr noundef %39, i32 noundef 4, ptr noundef @.str, i32 noundef %40)
  store i32 %41, ptr %9, align 4
  store i32 1, ptr %20, align 4
  br label %74

42:                                               ; preds = %28
  %43 = load ptr, ptr %10, align 8, !tbaa !3
  %44 = getelementptr inbounds nuw %struct._priv_exr_context_t, ptr %43, i32 0, i32 37
  %45 = load ptr, ptr %44, align 8, !tbaa !29
  %46 = load i32, ptr %11, align 4, !tbaa !8
  %47 = sext i32 %46 to i64
  %48 = getelementptr inbounds ptr, ptr %45, i64 %47
  %49 = load ptr, ptr %48, align 8, !tbaa !30
  store ptr %49, ptr %19, align 8, !tbaa !30
  %50 = load ptr, ptr %19, align 8, !tbaa !30
  %51 = getelementptr inbounds nuw %struct._priv_exr_part_t, ptr %50, i32 0, i32 1
  %52 = load i32, ptr %51, align 4, !tbaa !58
  %53 = icmp eq i32 %52, 0
  br i1 %53, label %54, label %61

54:                                               ; preds = %42
  %55 = load ptr, ptr %10, align 8, !tbaa !3
  call void @internal_exr_unlock(ptr noundef %55)
  %56 = load ptr, ptr %10, align 8, !tbaa !3
  %57 = getelementptr inbounds nuw %struct._priv_exr_context_t, ptr %56, i32 0, i32 12
  %58 = load ptr, ptr %57, align 8, !tbaa !31
  %59 = load ptr, ptr %10, align 8, !tbaa !3
  %60 = call i32 %58(ptr noundef %59, i32 noundef 29)
  store i32 %60, ptr %9, align 4
  store i32 1, ptr %20, align 4
  br label %74

61:                                               ; preds = %42
  %62 = load ptr, ptr %10, align 8, !tbaa !3
  %63 = load i32, ptr %11, align 4, !tbaa !8
  %64 = load ptr, ptr %19, align 8, !tbaa !30
  %65 = load i32, ptr %12, align 4, !tbaa !8
  %66 = load ptr, ptr %13, align 8, !tbaa !54
  %67 = load i64, ptr %14, align 8, !tbaa !33
  %68 = load i64, ptr %15, align 8, !tbaa !33
  %69 = load ptr, ptr %16, align 8, !tbaa !54
  %70 = load i64, ptr %17, align 8, !tbaa !33
  %71 = call i32 @write_scan_chunk(ptr noundef %62, i32 noundef %63, ptr noundef %64, i32 noundef %65, ptr noundef %66, i64 noundef %67, i64 noundef %68, ptr noundef %69, i64 noundef %70)
  store i32 %71, ptr %18, align 4, !tbaa !8
  %72 = load ptr, ptr %10, align 8, !tbaa !3
  call void @internal_exr_unlock(ptr noundef %72)
  %73 = load i32, ptr %18, align 4, !tbaa !8
  store i32 %73, ptr %9, align 4
  store i32 1, ptr %20, align 4
  br label %74

74:                                               ; preds = %61, %54, %34, %23
  call void @llvm.lifetime.end.p0(i64 8, ptr %19) #7
  call void @llvm.lifetime.end.p0(i64 4, ptr %18) #7
  %75 = load i32, ptr %9, align 4
  ret i32 %75
}